target datalayout = "e-m:e-p270:32:32-p271:32:32-p272:64:64-i64:64-i128:128-f80:128-n8:16:32:64-S128"
target triple = "x86_64-pc-linux-gnu"

%"class.pxrInternal_v0_24__pxrReserved__::pxr_double_conversion::Vector" = type <{ ptr, i32, [4 x i8] }>
%"class.pxrInternal_v0_24__pxrReserved__::pxr_double_conversion::DiyFp" = type <{ i64, i32, [4 x i8] }>
%"class.pxrInternal_v0_24__pxrReserved__::pxr_double_conversion::Bignum" = type { i16, i16, [128 x i32] }

; Function Attrs: mustprogress nounwind uwtable
define linkonce_odr noundef i32 @_ZNK32pxrInternal_v0_24__pxrReserved__21pxr_double_conversion5DiyFp1eEv(ptr noundef nonnull align 8 dereferenceable(12) %0) #2 comdat align 2 {
  %2 = alloca ptr, align 8
  store ptr %0, ptr %2, align 8
  %3 = load ptr, ptr %2, align 8
  %4 = getelementptr inbounds nuw %"class.pxrInternal_v0_24__pxrReserved__::pxr_double_conversion::DiyFp", ptr %3, i32 0, i32 1
  %5 = load i32, ptr %4, align 8
  ret i32 %5
}

; Function Attrs: mustprogress nounwind uwtable
define linkonce_odr noundef i64 @_ZNK32pxrInternal_v0_24__pxrReserved__21pxr_double_conversion5DiyFp1fEv(ptr noundef nonnull align 8 dereferenceable(12) %0) #2 comdat align 2 {
  %2 = alloca ptr, align 8
  store ptr %0, ptr %2, align 8
  %3 = load ptr, ptr %2, align 8
  %4 = getelementptr inbounds nuw %"class.pxrInternal_v0_24__pxrReserved__::pxr_double_conversion::DiyFp", ptr %3, i32 0, i32 0
  %5 = load i64, ptr %4, align 8
  ret i64 %5
}

; Function Attrs: mustprogress nounwind uwtable
define linkonce_odr void @_ZN32pxrInternal_v0_24__pxrReserved__21pxr_double_conversion6BignumC2Ev(ptr noundef nonnull align 4 dereferenceable(516) %0) unnamed_addr #2 comdat align 2 {
  %2 = alloca ptr, align 8
  store ptr %0, ptr %2, align 8
  %3 = load ptr, ptr %2, align 8
  %4 = getelementptr inbounds nuw %"class.pxrInternal_v0_24__pxrReserved__::pxr_double_conversion::Bignum", ptr %3, i32 0, i32 0
  store i16 0, ptr %4, align 4
  %5 = getelementptr inbounds nuw %"class.pxrInternal_v0_24__pxrReserved__::pxr_double_conversion::Bignum", ptr %3, i32 0, i32 1
  store i16 0, ptr %5, align 2
  ret void
}

; Function Attrs: mustprogress uwtable
define internal noundef i32 @_ZN32pxrInternal_v0_24__pxrReserved__21pxr_double_conversionL22CompareBufferWithDiyFpENS0_6VectorIKcEEiNS0_5DiyFpE(ptr %0, i32 %1, i32 noundef %2, i64 %3, i32 %4) #0 {
  %6 = alloca %"class.pxrInternal_v0_24__pxrReserved__::pxr_double_conversion::Vector", align 8
  %7 = alloca %"class.pxrInternal_v0_24__pxrReserved__::pxr_double_conversion::DiyFp", align 8
  %8 = alloca i32, align 4
  %9 = alloca %"class.pxrInternal_v0_24__pxrReserved__::pxr_double_conversion::Bignum", align 4
  %10 = alloca %"class.pxrInternal_v0_24__pxrReserved__::pxr_double_conversion::Bignum", align 4
  %11 = alloca %"class.pxrInternal_v0_24__pxrReserved__::pxr_double_conversion::Vector", align 8
  %12 = getelementptr inbounds nuw { ptr, i32 }, ptr %6, i32 0, i32 0
  store ptr %0, ptr %12, align 8
  %13 = getelementptr inbounds nuw { ptr, i32 }, ptr %6, i32 0, i32 1
  store i32 %1, ptr %13, align 8
  %14 = getelementptr inbounds nuw { i64, i32 }, ptr %7, i32 0, i32 0
  store i64 %3, ptr %14, align 8
  %15 = getelementptr inbounds nuw { i64, i32 }, ptr %7, i32 0, i32 1
  store i32 %4, ptr %15, align 8
  store i32 %2, ptr %8, align 4
  call void @_ZN32pxrInternal_v0_24__pxrReserved__21pxr_double_conversion6BignumC2Ev(ptr noundef nonnull align 4 dereferenceable(516) %9)
  call void @_ZN32pxrInternal_v0_24__pxrReserved__21pxr_double_conversion6BignumC2Ev(ptr noundef nonnull align 4 dereferenceable(516) %10)
  call void @llvm.memcpy.p0.p0.i64(ptr align 8 %11, ptr align 8 %6, i64 16, i1 false)
  %16 = getelementptr inbounds nuw { ptr, i32 }, ptr %11, i32 0, i32 0
  %17 = load ptr, ptr %16, align 8
  %18 = getelementptr inbounds nuw { ptr, i32 }, ptr %11, i32 0, i32 1
  %19 = load i32, ptr %18, align 8
  call void @_ZN32pxrInternal_v0_24__pxrReserved__21pxr_double_conversion6Bignum19AssignDecimalStringENS0_6VectorIKcEE(ptr noundef nonnull align 4 dereferenceable(516) %9, ptr %17, i32 %19)
  %20 = call noundef i64 @_ZNK32pxrInternal_v0_24__pxrReserved__21pxr_double_conversion5DiyFp1fEv(ptr noundef nonnull align 8 dereferenceable(12) %7)
  call void @_ZN32pxrInternal_v0_24__pxrReserved__21pxr_double_conversion6Bignum12AssignUInt64Em(ptr noundef nonnull align 4 dereferenceable(516) %10, i64 noundef %20)
  %21 = load i32, ptr %8, align 4
  %22 = icmp sge i32 %21, 0
  br i1 %22, label %23, label %25

23:                                               ; preds = %5
  %24 = load i32, ptr %8, align 4
  call void @_ZN32pxrInternal_v0_24__pxrReserved__21pxr_double_conversion6Bignum20MultiplyByPowerOfTenEi(ptr noundef nonnull align 4 dereferenceable(516) %9, i32 noundef %24)
  br label %28

25:                                               ; preds = %5
  %26 = load i32, ptr %8, align 4
  %27 = sub nsw i32 0, %26
  call void @_ZN32pxrInternal_v0_24__pxrReserved__21pxr_double_conversion6Bignum20MultiplyByPowerOfTenEi(ptr noundef nonnull align 4 dereferenceable(516) %10, i32 noundef %27)
  br label %28

28:                                               ; preds = %25, %23
  %29 = call noundef i32 @_ZNK32pxrInternal_v0_24__pxrReserved__21pxr_double_conversion5DiyFp1eEv(ptr noundef nonnull align 8 dereferenceable(12) %7)
  %30 = icmp sgt i32 %29, 0
  br i1 %30, label %31, label %33

31:                                               ; preds = %28
  %32 = call noundef i32 @_ZNK32pxrInternal_v0_24__pxrReserved__21pxr_double_conversion5DiyFp1eEv(ptr noundef nonnull align 8 dereferenceable(12) %7)
  call void @_ZN32pxrInternal_v0_24__pxrReserved__21pxr_double_conversion6Bignum9ShiftLeftEi(ptr noundef nonnull align 4 dereferenceable(516) %10, i32 noundef %32)
  br label %36

33:                                               ; preds = %28
  %34 = call noundef i32 @_ZNK32pxrInternal_v0_24__pxrReserved__21pxr_double_conversion5DiyFp1eEv(ptr noundef nonnull align 8 dereferenceable(12) %7)
  %35 = sub nsw i32 0, %34
  call void @_ZN32pxrInternal_v0_24__pxrReserved__21pxr_double_conversion6Bignum9ShiftLeftEi(ptr noundef nonnull align 4 dereferenceable(516) %9, i32 noundef %35)
  br label %36

36:                                               ; preds = %33, %31
  %37 = call noundef i32 @_ZN32pxrInternal_v0_24__pxrReserved__21pxr_double_conversion6Bignum7CompareERKS1_S3_(ptr noundef nonnull align 4 dereferenceable(516) %9, ptr noundef nonnull align 4 dereferenceable(516) %10)
  ret i32 %37
}